target datalayout = "e-m:e-p270:32:32-p271:32:32-p272:64:64-i64:64-i128:128-f80:128-n8:16:32:64-S128"
target triple = "x86_64-pc-linux-gnu"

%struct.malloc_mutex_s = type { %union.anon }
%union.anon = type { %struct.anon.1 }
%struct.anon.1 = type { %struct.mutex_prof_data_t, %union.pthread_mutex_t, %struct.atomic_b_t }
%struct.mutex_prof_data_t = type { %struct.nstime_t, %struct.nstime_t, i64, i64, i32, %struct.atomic_u32_t, i64, ptr, i64 }
%struct.nstime_t = type { i64 }
%struct.atomic_u32_t = type { i32 }
%union.pthread_mutex_t = type { %struct.__pthread_mutex_s }
%struct.__pthread_mutex_s = type { i32, i32, i32, i32, i32, i16, i16, %struct.__pthread_internal_list }
%struct.__pthread_internal_list = type { ptr, ptr }
%struct.atomic_b_t = type { i8 }
%struct.atomic_zd_t = type { i64 }
%struct.hpa_shard_opts_s = type { i64, i64, i32, i8, i64, i64 }
%struct.sec_opts_s = type { i64, i64, i64, i64, i64 }
%struct.arena_s = type { [2 x %struct.atomic_u_t], %struct.atomic_u_t, ptr, %struct.arena_stats_s, %struct.anon, %struct.anon.0, %struct.malloc_mutex_s, %struct.atomic_u_t, %struct.edata_list_active_t, %struct.malloc_mutex_s, %struct.pa_shard_s, i32, ptr, %struct.nstime_t, [0 x %struct.bin_s] }
%struct.arena_stats_s = type { i64, i64, i64, i64, %struct.atomic_zu_t, i64, i64, i64, i64, i64, i64, %struct.pa_shard_stats_s, i64, i64, [12 x %struct.mutex_prof_data_t], [196 x %struct.arena_stats_large_s], %struct.nstime_t }
%struct.atomic_zu_t = type { i64 }
%struct.pa_shard_stats_s = type { i64, %struct.pac_stats_s }
%struct.pac_stats_s = type { %struct.pac_decay_stats_s, %struct.pac_decay_stats_s, i64, %struct.atomic_zu_t, %struct.atomic_zu_t }
%struct.pac_decay_stats_s = type { %struct.locked_u64_s, %struct.locked_u64_s, %struct.locked_u64_s }
%struct.locked_u64_s = type { %struct.atomic_u64_t }
%struct.atomic_u64_t = type { i64 }
%struct.arena_stats_large_s = type { %struct.locked_u64_s, %struct.locked_u64_s, %struct.locked_u64_s, %struct.locked_u64_s, %struct.locked_u64_s, i64 }
%struct.anon = type { ptr }
%struct.anon.0 = type { ptr }
%struct.atomic_u_t = type { i32 }
%struct.edata_list_active_t = type { %struct.anon.3 }
%struct.anon.3 = type { ptr }
%struct.pa_shard_s = type { ptr, %struct.atomic_zu_t, %struct.atomic_b_t, i8, %struct.pac_s, %struct.sec_s, %struct.hpa_shard_s, %struct.edata_cache_s, i32, ptr, ptr, ptr, ptr }
%struct.pac_s = type { %struct.pai_s, %struct.ecache_s, %struct.ecache_s, %struct.ecache_s, ptr, ptr, ptr, %struct.exp_grow_s, %struct.malloc_mutex_s, %struct.san_bump_alloc_s, %struct.atomic_zu_t, %struct.decay_s, %struct.decay_s, ptr, ptr, %struct.atomic_zu_t }
%struct.pai_s = type { ptr, ptr, ptr, ptr, ptr, ptr, ptr }
%struct.ecache_s = type { %struct.malloc_mutex_s, %struct.eset_s, %struct.eset_s, i32, i32, i8 }
%struct.eset_s = type { [4 x i64], [200 x %struct.eset_bin_s], [200 x %struct.eset_bin_stats_s], %struct.edata_list_inactive_t, %struct.atomic_zu_t, i32 }
%struct.eset_bin_s = type { %struct.edata_heap_t, %struct.edata_cmp_summary_s }
%struct.edata_heap_t = type { %struct.ph_s }
%struct.ph_s = type { ptr, i64 }
%struct.edata_cmp_summary_s = type { i64, i64 }
%struct.eset_bin_stats_s = type { %struct.atomic_zu_t, %struct.atomic_zu_t }
%struct.edata_list_inactive_t = type { %struct.anon.4 }
%struct.anon.4 = type { ptr }
%struct.exp_grow_s = type { i32, i32 }
%struct.san_bump_alloc_s = type { %struct.malloc_mutex_s, ptr }
%struct.decay_s = type { %struct.malloc_mutex_s, i8, %struct.atomic_zd_t, %struct.nstime_t, %struct.nstime_t, i64, %struct.nstime_t, i64, i64, [200 x i64], i64 }
%struct.sec_s = type { %struct.pai_s, ptr, %struct.sec_opts_s, ptr, i32 }
%struct.hpa_shard_s = type { %struct.pai_s, ptr, %struct.malloc_mutex_s, %struct.malloc_mutex_s, ptr, %struct.edata_cache_fast_s, %struct.psset_s, i64, i32, ptr, %struct.hpa_shard_opts_s, i64, %struct.hpa_shard_nonderived_stats_s, %struct.nstime_t }
%struct.edata_cache_fast_s = type { %struct.edata_list_inactive_t, ptr, i8 }
%struct.psset_s = type { [64 x %struct.hpdata_age_heap_t], [1 x i64], %struct.psset_bin_stats_s, %struct.psset_stats_s, %struct.hpdata_empty_list_t, [128 x %struct.hpdata_purge_list_t], [2 x i64], %struct.hpdata_hugify_list_t }
%struct.hpdata_age_heap_t = type { %struct.ph_s }
%struct.psset_bin_stats_s = type { i64, i64, i64 }
%struct.psset_stats_s = type { [64 x [2 x %struct.psset_bin_stats_s]], [2 x %struct.psset_bin_stats_s], [2 x %struct.psset_bin_stats_s] }
%struct.hpdata_empty_list_t = type { %struct.anon.5 }
%struct.anon.5 = type { ptr }
%struct.hpdata_purge_list_t = type { %struct.anon.6 }
%struct.anon.6 = type { ptr }
%struct.hpdata_hugify_list_t = type { %struct.anon.7 }
%struct.anon.7 = type { ptr }
%struct.hpa_shard_nonderived_stats_s = type { i64, i64, i64, i64 }
%struct.edata_cache_s = type { %struct.edata_avail_t, %struct.atomic_zu_t, %struct.malloc_mutex_s, ptr }
%struct.edata_avail_t = type { %struct.ph_s }
%struct.bin_s = type { %struct.malloc_mutex_s, %struct.bin_stats_s, ptr, %struct.edata_heap_t, %struct.edata_list_active_t }
%struct.bin_stats_s = type { i64, i64, i64, i64, i64, i64, i64, i64, i64, i64 }
%struct.edata_s = type { i64, ptr, %union.anon.11, ptr, i64, %union.anon.12, %union.anon.15 }
%union.anon.11 = type { i64 }
%union.anon.12 = type { %union.anon.14 }
%union.anon.14 = type { %struct.edata_heap_link_t }
%struct.edata_heap_link_t = type { %struct.phn_link_s }
%struct.phn_link_s = type { ptr, ptr, ptr }
%union.anon.15 = type { %struct.slab_data_s }
%struct.slab_data_s = type { [8 x i64] }
%struct.anon.13 = type { ptr, ptr }

@je_manual_arena_base = external global i32, align 4

; Function Attrs: inlinehint nounwind uwtable
define internal i32 @arena_ind_get(ptr noundef %0) #3 {
  %2 = alloca ptr, align 8
  store ptr %0, ptr %2, align 8, !tbaa !9
  %3 = load ptr, ptr %2, align 8, !tbaa !9
  %4 = getelementptr inbounds nuw %struct.arena_s, ptr %3, i32 0, i32 11
  %5 = load i32, ptr %4, align 8, !tbaa !235
  ret i32 %5
}

; Function Attrs: inlinehint nounwind uwtable
define internal void @edata_list_active_remove(ptr noundef %0, ptr noundef %1) #3 {
  %3 = alloca ptr, align 8
  %4 = alloca ptr, align 8
  store ptr %0, ptr %3, align 8, !tbaa !120
  store ptr %1, ptr %4, align 8, !tbaa !169
  br label %5

5:                                                ; preds = %2
  %6 = load ptr, ptr %3, align 8, !tbaa !120
  %7 = getelementptr inbounds nuw %struct.edata_list_active_t, ptr %6, i32 0, i32 0
  %8 = getelementptr inbounds nuw %struct.anon.3, ptr %7, i32 0, i32 0
  %9 = load ptr, ptr %8, align 8, !tbaa !179
  %10 = load ptr, ptr %4, align 8, !tbaa !169
  %11 = icmp eq ptr %9, %10
  br i1 %11, label %12, label %23

12:                                               ; preds = %5
  %13 = load ptr, ptr %3, align 8, !tbaa !120
  %14 = getelementptr inbounds nuw %struct.edata_list_active_t, ptr %13, i32 0, i32 0
  %15 = getelementptr inbounds nuw %struct.anon.3, ptr %14, i32 0, i32 0
  %16 = load ptr, ptr %15, align 8, !tbaa !179
  %17 = getelementptr inbounds nuw %struct.edata_s, ptr %16, i32 0, i32 5
  %18 = getelementptr inbounds nuw %struct.anon.13, ptr %17, i32 0, i32 0
  %19 = load ptr, ptr %18, align 8, !tbaa !194
  %20 = load ptr, ptr %3, align 8, !tbaa !120
  %21 = getelementptr inbounds nuw %struct.edata_list_active_t, ptr %20, i32 0, i32 0
  %22 = getelementptr inbounds nuw %struct.anon.3, ptr %21, i32 0, i32 0
  store ptr %19, ptr %22, align 8, !tbaa !179
  br label %23

23:                                               ; preds = %12, %5
  %24 = load ptr, ptr %3, align 8, !tbaa !120
  %25 = getelementptr inbounds nuw %struct.edata_list_active_t, ptr %24, i32 0, i32 0
  %26 = getelementptr inbounds nuw %struct.anon.3, ptr %25, i32 0, i32 0
  %27 = load ptr, ptr %26, align 8, !tbaa !179
  %28 = load ptr, ptr %4, align 8, !tbaa !169
  %29 = icmp ne ptr %27, %28
  br i1 %29, label %30, label %86

30:                                               ; preds = %23
  br label %31

31:                                               ; preds = %30
  %32 = load ptr, ptr %4, align 8, !tbaa !169
  %33 = getelementptr inbounds nuw %struct.edata_s, ptr %32, i32 0, i32 5
  %34 = getelementptr inbounds nuw %struct.anon.13, ptr %33, i32 0, i32 0
  %35 = load ptr, ptr %34, align 8, !tbaa !194
  %36 = getelementptr inbounds nuw %struct.edata_s, ptr %35, i32 0, i32 5
  %37 = getelementptr inbounds nuw %struct.anon.13, ptr %36, i32 0, i32 1
  %38 = load ptr, ptr %37, align 8, !tbaa !194
  %39 = load ptr, ptr %4, align 8, !tbaa !169
  %40 = getelementptr inbounds nuw %struct.edata_s, ptr %39, i32 0, i32 5
  %41 = getelementptr inbounds nuw %struct.anon.13, ptr %40, i32 0, i32 1
  %42 = load ptr, ptr %41, align 8, !tbaa !194
  %43 = getelementptr inbounds nuw %struct.edata_s, ptr %42, i32 0, i32 5
  %44 = getelementptr inbounds nuw %struct.anon.13, ptr %43, i32 0, i32 0
  store ptr %38, ptr %44, align 8, !tbaa !194
  %45 = load ptr, ptr %4, align 8, !tbaa !169
  %46 = getelementptr inbounds nuw %struct.edata_s, ptr %45, i32 0, i32 5
  %47 = getelementptr inbounds nuw %struct.anon.13, ptr %46, i32 0, i32 1
  %48 = load ptr, ptr %47, align 8, !tbaa !194
  %49 = load ptr, ptr %4, align 8, !tbaa !169
  %50 = getelementptr inbounds nuw %struct.edata_s, ptr %49, i32 0, i32 5
  %51 = getelementptr inbounds nuw %struct.anon.13, ptr %50, i32 0, i32 0
  %52 = load ptr, ptr %51, align 8, !tbaa !194
  %53 = getelementptr inbounds nuw %struct.edata_s, ptr %52, i32 0, i32 5
  %54 = getelementptr inbounds nuw %struct.anon.13, ptr %53, i32 0, i32 1
  store ptr %48, ptr %54, align 8, !tbaa !194
  %55 = load ptr, ptr %4, align 8, !tbaa !169
  %56 = getelementptr inbounds nuw %struct.edata_s, ptr %55, i32 0, i32 5
  %57 = getelementptr inbounds nuw %struct.anon.13, ptr %56, i32 0, i32 1
  %58 = load ptr, ptr %57, align 8, !tbaa !194
  %59 = getelementptr inbounds nuw %struct.edata_s, ptr %58, i32 0, i32 5
  %60 = getelementptr inbounds nuw %struct.anon.13, ptr %59, i32 0, i32 0
  %61 = load ptr, ptr %60, align 8, !tbaa !194
  %62 = load ptr, ptr %4, align 8, !tbaa !169
  %63 = getelementptr inbounds nuw %struct.edata_s, ptr %62, i32 0, i32 5
  %64 = getelementptr inbounds nuw %struct.anon.13, ptr %63, i32 0, i32 1
  store ptr %61, ptr %64, align 8, !tbaa !194
  %65 = load ptr, ptr %4, align 8, !tbaa !169
  %66 = getelementptr inbounds nuw %struct.edata_s, ptr %65, i32 0, i32 5
  %67 = getelementptr inbounds nuw %struct.anon.13, ptr %66, i32 0, i32 0
  %68 = load ptr, ptr %67, align 8, !tbaa !194
  %69 = load ptr, ptr %4, align 8, !tbaa !169
  %70 = getelementptr inbounds nuw %struct.edata_s, ptr %69, i32 0, i32 5
  %71 = getelementptr inbounds nuw %struct.anon.13, ptr %70, i32 0, i32 0
  %72 = load ptr, ptr %71, align 8, !tbaa !194
  %73 = getelementptr inbounds nuw %struct.edata_s, ptr %72, i32 0, i32 5
  %74 = getelementptr inbounds nuw %struct.anon.13, ptr %73, i32 0, i32 1
  %75 = load ptr, ptr %74, align 8, !tbaa !194
  %76 = getelementptr inbounds nuw %struct.edata_s, ptr %75, i32 0, i32 5
  %77 = getelementptr inbounds nuw %struct.anon.13, ptr %76, i32 0, i32 0
  store ptr %68, ptr %77, align 8, !tbaa !194
  %78 = load ptr, ptr %4, align 8, !tbaa !169
  %79 = load ptr, ptr %4, align 8, !tbaa !169
  %80 = getelementptr inbounds nuw %struct.edata_s, ptr %79, i32 0, i32 5
  %81 = getelementptr inbounds nuw %struct.anon.13, ptr %80, i32 0, i32 1
  %82 = load ptr, ptr %81, align 8, !tbaa !194
  %83 = getelementptr inbounds nuw %struct.edata_s, ptr %82, i32 0, i32 5
  %84 = getelementptr inbounds nuw %struct.anon.13, ptr %83, i32 0, i32 0
  store ptr %78, ptr %84, align 8, !tbaa !194
  br label %85

85:                                               ; preds = %31
  br label %92

86:                                               ; preds = %23
  br label %87

87:                                               ; preds = %86
  %88 = load ptr, ptr %3, align 8, !tbaa !120
  %89 = getelementptr inbounds nuw %struct.edata_list_active_t, ptr %88, i32 0, i32 0
  %90 = getelementptr inbounds nuw %struct.anon.3, ptr %89, i32 0, i32 0
  store ptr null, ptr %90, align 8, !tbaa !179
  br label %91

91:                                               ; preds = %87
  br label %92

92:                                               ; preds = %91, %85
  br label %93

93:                                               ; preds = %92
  ret void
}

; Function Attrs: inlinehint nounwind uwtable
define internal zeroext i1 @arena_is_auto(ptr noundef %0) #3 {
  %2 = alloca ptr, align 8
  store ptr %0, ptr %2, align 8, !tbaa !9
  br label %3

3:                                                ; preds = %1
  br label %4

4:                                                ; preds = %3
  %5 = load ptr, ptr %2, align 8, !tbaa !9
  %6 = call i32 @arena_ind_get(ptr noundef %5)
  %7 = load i32, ptr @je_manual_arena_base, align 4, !tbaa !17
  %8 = icmp ult i32 %6, %7
  ret i1 %8
}

; Function Attrs: nounwind uwtable
define internal void @arena_bin_slabs_full_remove(ptr noundef %0, ptr noundef %1, ptr noundef %2) #0 {
  %4 = alloca ptr, align 8
  %5 = alloca ptr, align 8
  %6 = alloca ptr, align 8
  store ptr %0, ptr %4, align 8, !tbaa !9
  store ptr %1, ptr %5, align 8, !tbaa !134
  store ptr %2, ptr %6, align 8, !tbaa !169
  %7 = load ptr, ptr %4, align 8, !tbaa !9
  %8 = call zeroext i1 @arena_is_auto(ptr noundef %7)
  br i1 %8, label %9, label %10

9:                                                ; preds = %3
  br label %14

10:                                               ; preds = %3
  %11 = load ptr, ptr %5, align 8, !tbaa !134
  %12 = getelementptr inbounds nuw %struct.bin_s, ptr %11, i32 0, i32 4
  %13 = load ptr, ptr %6, align 8, !tbaa !169
  call void @edata_list_active_remove(ptr noundef %12, ptr noundef %13)
  br label %14

14:                                               ; preds = %10, %9
  ret void
}

; Function Attrs: nounwind uwtable
define hidden void @je_arena_dalloc_bin_locked_handle_newly_nonempty(ptr noundef %0, ptr noundef %1, ptr noundef %2, ptr noundef %3) #0 {
  %5 = alloca ptr, align 8
  %6 = alloca ptr, align 8
  %7 = alloca ptr, align 8
  %8 = alloca ptr, align 8
  store ptr %0, ptr %5, align 8, !tbaa !4
  store ptr %1, ptr %6, align 8, !tbaa !9
  store ptr %2, ptr %7, align 8, !tbaa !169
  store ptr %3, ptr %8, align 8, !tbaa !134
  %9 = load ptr, ptr %6, align 8, !tbaa !9
  %10 = load ptr, ptr %8, align 8, !tbaa !134
  %11 = load ptr, ptr %7, align 8, !tbaa !169
  call void @arena_bin_slabs_full_remove(ptr noundef %9, ptr noundef %10, ptr noundef %11)
  %12 = load ptr, ptr %5, align 8, !tbaa !4
  %13 = load ptr, ptr %6, align 8, !tbaa !9
  %14 = load ptr, ptr %7, align 8, !tbaa !169
  %15 = load ptr, ptr %8, align 8, !tbaa !134
  call void @arena_bin_lower_slab(ptr noundef %12, ptr noundef %13, ptr noundef %14, ptr noundef %15)
  ret void
}