; Function Attrs: nounwind uwtable
define hidden void @je_arena_dalloc_bin_locked_handle_newly_nonempty(ptr noundef readnone captures(none) %0, ptr noundef readonly captures(none) %1, ptr noundef %2, ptr noundef %3) local_unnamed_addr #0 {
  %5 = getelementptr i8, ptr %1, i64 78928
  %.val = load i32, ptr %5, align 8, !tbaa !136
  %6 = load i32, ptr @je_manual_arena_base, align 4, !tbaa !4
  %7 = icmp ult i32 %.val, %6
  br i1 %7, label %arena_bin_slabs_full_remove.exit, label %8

8:                                                ; preds = %4
  %9 = getelementptr inbounds nuw i8, ptr %3, i64 216
  %10 = load ptr, ptr %9, align 8, !tbaa !148
  %11 = icmp eq ptr %10, %2
  br i1 %11, label %12, label %15

12:                                               ; preds = %8
  %13 = getelementptr inbounds nuw i8, ptr %10, i64 40
  %14 = load ptr, ptr %13, align 8, !tbaa !141
  store ptr %14, ptr %9, align 8, !tbaa !148
  br label %15

15:                                               ; preds = %12, %8
  %16 = phi ptr [ %14, %12 ], [ %10, %8 ]
  %.not.i.i = icmp eq ptr %16, %2
  br i1 %.not.i.i, label %36, label %17

17:                                               ; preds = %15
  %18 = getelementptr inbounds nuw i8, ptr %2, i64 40
  %19 = load ptr, ptr %18, align 8, !tbaa !141
  %20 = getelementptr inbounds nuw i8, ptr %19, i64 48
  %21 = load ptr, ptr %20, align 8, !tbaa !141
  %22 = getelementptr inbounds nuw i8, ptr %2, i64 48
  %23 = load ptr, ptr %22, align 8, !tbaa !141
  %24 = getelementptr inbounds nuw i8, ptr %23, i64 40
  store ptr %21, ptr %24, align 8, !tbaa !141
  %25 = load ptr, ptr %22, align 8, !tbaa !141
  %26 = load ptr, ptr %18, align 8, !tbaa !141
  %27 = getelementptr inbounds nuw i8, ptr %26, i64 48
  store ptr %25, ptr %27, align 8, !tbaa !141
  %28 = getelementptr inbounds nuw i8, ptr %25, i64 40
  %29 = load ptr, ptr %28, align 8, !tbaa !141
  store ptr %29, ptr %22, align 8, !tbaa !141
  %30 = load ptr, ptr %18, align 8, !tbaa !141
  %31 = getelementptr inbounds nuw i8, ptr %30, i64 48
  %32 = load ptr, ptr %31, align 8, !tbaa !141
  %33 = getelementptr inbounds nuw i8, ptr %32, i64 40
  store ptr %30, ptr %33, align 8, !tbaa !141
  %34 = load ptr, ptr %22, align 8, !tbaa !141
  %35 = getelementptr inbounds nuw i8, ptr %34, i64 40
  store ptr %2, ptr %35, align 8, !tbaa !141
  br label %arena_bin_slabs_full_remove.exit

36:                                               ; preds = %15
  store ptr null, ptr %9, align 8, !tbaa !148
  br label %arena_bin_slabs_full_remove.exit

arena_bin_slabs_full_remove.exit:                 ; preds = %4, %17, %36
  tail call fastcc void @arena_bin_lower_slab(ptr noundef nonnull %1, ptr noundef %2, ptr noundef %3)
  ret void
}